target datalayout = "e-m:e-p270:32:32-p271:32:32-p272:64:64-i64:64-i128:128-f80:128-n8:16:32:64-S128"
target triple = "x86_64-pc-linux-gnu"

%"class.llvm::StringRef" = type { ptr, i64 }
%"class.llvm::SmallVectorImpl" = type { %"class.llvm::SmallVectorTemplateBase" }
%"class.llvm::SmallVectorTemplateBase" = type { %"class.llvm::SmallVectorTemplateCommon" }
%"class.llvm::SmallVectorTemplateCommon" = type { %"class.llvm::SmallVectorBase" }
%"class.llvm::SmallVectorBase" = type { ptr, i64, i64 }
%"class.llvm::SmallString.10" = type { %"class.llvm::SmallVector.11" }
%"class.llvm::SmallVector.11" = type { %"class.llvm::SmallVectorImpl", %"struct.llvm::SmallVectorStorage.12" }
%"struct.llvm::SmallVectorStorage.12" = type { [128 x i8] }
%"class.std::error_code" = type { i32, ptr }

; Function Attrs: mustprogress nounwind uwtable
define linkonce_odr hidden noundef ptr @_ZNK4llvm25SmallVectorTemplateCommonIcvE10getFirstElEv(ptr noundef nonnull align 8 dereferenceable(24) %0) #0 comdat align 2 {
  %2 = alloca ptr, align 8
  store ptr %0, ptr %2, align 8
  %3 = load ptr, ptr %2, align 8
  %4 = getelementptr inbounds i8, ptr %3, i64 24
  ret ptr %4
}

; Function Attrs: mustprogress nounwind uwtable
define linkonce_odr hidden void @_ZN4llvm25SmallVectorTemplateCommonIcvEC2Em(ptr noundef nonnull align 8 dereferenceable(24) %0, i64 noundef %1) unnamed_addr #0 comdat align 2 {
  %3 = alloca ptr, align 8
  %4 = alloca i64, align 8
  store ptr %0, ptr %3, align 8
  store i64 %1, ptr %4, align 8
  %5 = load ptr, ptr %3, align 8
  %6 = call noundef ptr @_ZNK4llvm25SmallVectorTemplateCommonIcvE10getFirstElEv(ptr noundef nonnull align 8 dereferenceable(24) %5)
  %7 = load i64, ptr %4, align 8
  call void @_ZN4llvm15SmallVectorBaseImEC2EPvm(ptr noundef nonnull align 8 dereferenceable(24) %5, ptr noundef %6, i64 noundef %7)
  ret void
}

; Function Attrs: mustprogress nounwind uwtable
define linkonce_odr hidden noundef zeroext i1 @_ZNK4llvm25SmallVectorTemplateCommonIcvE7isSmallEv(ptr noundef nonnull align 8 dereferenceable(24) %0) #0 comdat align 2 {
  %2 = alloca ptr, align 8
  store ptr %0, ptr %2, align 8
  %3 = load ptr, ptr %2, align 8
  %4 = getelementptr inbounds nuw %"class.llvm::SmallVectorBase", ptr %3, i32 0, i32 0
  %5 = load ptr, ptr %4, align 8
  %6 = call noundef ptr @_ZNK4llvm25SmallVectorTemplateCommonIcvE10getFirstElEv(ptr noundef nonnull align 8 dereferenceable(24) %3)
  %7 = icmp eq ptr %5, %6
  ret i1 %7
}

; Function Attrs: mustprogress nounwind uwtable
define linkonce_odr hidden void @_ZN4llvm23SmallVectorTemplateBaseIcLb1EEC2Em(ptr noundef nonnull align 8 dereferenceable(24) %0, i64 noundef %1) unnamed_addr #0 comdat align 2 {
  %3 = alloca ptr, align 8
  %4 = alloca i64, align 8
  store ptr %0, ptr %3, align 8
  store i64 %1, ptr %4, align 8
  %5 = load ptr, ptr %3, align 8
  %6 = load i64, ptr %4, align 8
  call void @_ZN4llvm25SmallVectorTemplateCommonIcvEC2Em(ptr noundef nonnull align 8 dereferenceable(24) %5, i64 noundef %6)
  ret void
}

; Function Attrs: mustprogress nounwind uwtable
define linkonce_odr hidden void @_ZN4llvm15SmallVectorImplIcED2Ev(ptr noundef nonnull align 8 dereferenceable(24) %0) unnamed_addr #0 comdat align 2 {
  %2 = alloca ptr, align 8
  store ptr %0, ptr %2, align 8
  %3 = load ptr, ptr %2, align 8
  %4 = call noundef zeroext i1 @_ZNK4llvm25SmallVectorTemplateCommonIcvE7isSmallEv(ptr noundef nonnull align 8 dereferenceable(24) %3)
  br i1 %4, label %7, label %5

5:                                                ; preds = %1
  %6 = call noundef ptr @_ZN4llvm25SmallVectorTemplateCommonIcvE5beginEv(ptr noundef nonnull align 8 dereferenceable(24) %3)
  call void @free(ptr noundef %6) #9
  br label %7

7:                                                ; preds = %5, %1
  ret void
}

; Function Attrs: mustprogress nounwind uwtable
define linkonce_odr hidden void @_ZN4llvm23SmallVectorTemplateBaseIcLb1EE13destroy_rangeEPcS2_(ptr noundef %0, ptr noundef %1) #0 comdat align 2 {
  %3 = alloca ptr, align 8
  %4 = alloca ptr, align 8
  store ptr %0, ptr %3, align 8
  store ptr %1, ptr %4, align 8
  ret void
}

; Function Attrs: mustprogress nounwind uwtable
define linkonce_odr hidden noundef ptr @_ZN4llvm25SmallVectorTemplateCommonIcvE3endEv(ptr noundef nonnull align 8 dereferenceable(24) %0) #0 comdat align 2 {
  %2 = alloca ptr, align 8
  store ptr %0, ptr %2, align 8
  %3 = load ptr, ptr %2, align 8
  %4 = call noundef ptr @_ZN4llvm25SmallVectorTemplateCommonIcvE5beginEv(ptr noundef nonnull align 8 dereferenceable(24) %3)
  %5 = call noundef i64 @_ZNK4llvm15SmallVectorBaseImE4sizeEv(ptr noundef nonnull align 8 dereferenceable(24) %3)
  %6 = getelementptr inbounds i8, ptr %4, i64 %5
  ret ptr %6
}

; Function Attrs: mustprogress nounwind uwtable
define linkonce_odr hidden noundef ptr @_ZN4llvm25SmallVectorTemplateCommonIcvE5beginEv(ptr noundef nonnull align 8 dereferenceable(24) %0) #0 comdat align 2 {
  %2 = alloca ptr, align 8
  store ptr %0, ptr %2, align 8
  %3 = load ptr, ptr %2, align 8
  %4 = getelementptr inbounds nuw %"class.llvm::SmallVectorBase", ptr %3, i32 0, i32 0
  %5 = load ptr, ptr %4, align 8
  ret ptr %5
}

; Function Attrs: mustprogress nounwind uwtable
define linkonce_odr hidden void @_ZN4llvm15SmallVectorImplIcEC2Ej(ptr noundef nonnull align 8 dereferenceable(24) %0, i32 noundef %1) unnamed_addr #0 comdat align 2 {
  %3 = alloca ptr, align 8
  %4 = alloca i32, align 4
  store ptr %0, ptr %3, align 8
  store i32 %1, ptr %4, align 4
  %5 = load ptr, ptr %3, align 8
  %6 = load i32, ptr %4, align 4
  %7 = zext i32 %6 to i64
  call void @_ZN4llvm23SmallVectorTemplateBaseIcLb1EEC2Em(ptr noundef nonnull align 8 dereferenceable(24) %5, i64 noundef %7)
  ret void
}

; Function Attrs: mustprogress nounwind uwtable
define linkonce_odr hidden void @_ZN4llvm11SmallVectorIcLj128EED2Ev(ptr noundef nonnull align 8 dereferenceable(152) %0) unnamed_addr #0 comdat align 2 {
  %2 = alloca ptr, align 8
  store ptr %0, ptr %2, align 8
  %3 = load ptr, ptr %2, align 8
  %4 = call noundef ptr @_ZN4llvm25SmallVectorTemplateCommonIcvE5beginEv(ptr noundef nonnull align 8 dereferenceable(24) %3)
  %5 = call noundef ptr @_ZN4llvm25SmallVectorTemplateCommonIcvE3endEv(ptr noundef nonnull align 8 dereferenceable(24) %3)
  call void @_ZN4llvm23SmallVectorTemplateBaseIcLb1EE13destroy_rangeEPcS2_(ptr noundef %4, ptr noundef %5)
  call void @_ZN4llvm15SmallVectorImplIcED2Ev(ptr noundef nonnull align 8 dereferenceable(24) %3) #9
  ret void
}

; Function Attrs: mustprogress nounwind uwtable
define linkonce_odr hidden void @_ZNSt10error_codeC2EiRKNSt3_V214error_categoryE(ptr noundef nonnull align 8 dereferenceable(16) %0, i32 noundef %1, ptr noundef nonnull align 8 dereferenceable(8) %2) unnamed_addr #0 comdat align 2 {
  %4 = alloca ptr, align 8
  %5 = alloca i32, align 4
  %6 = alloca ptr, align 8
  store ptr %0, ptr %4, align 8
  store i32 %1, ptr %5, align 4
  store ptr %2, ptr %6, align 8
  %7 = load ptr, ptr %4, align 8
  %8 = getelementptr inbounds nuw %"class.std::error_code", ptr %7, i32 0, i32 0
  %9 = load i32, ptr %5, align 4
  store i32 %9, ptr %8, align 8
  %10 = getelementptr inbounds nuw %"class.std::error_code", ptr %7, i32 0, i32 1
  %11 = load ptr, ptr %6, align 8
  store ptr %11, ptr %10, align 8
  ret void
}

; Function Attrs: mustprogress nounwind uwtable
define linkonce_odr hidden void @_ZN4llvm11SmallVectorIcLj128EEC2Ev(ptr noundef nonnull align 8 dereferenceable(152) %0) unnamed_addr #0 comdat align 2 {
  %2 = alloca ptr, align 8
  store ptr %0, ptr %2, align 8
  %3 = load ptr, ptr %2, align 8
  call void @_ZN4llvm15SmallVectorImplIcEC2Ej(ptr noundef nonnull align 8 dereferenceable(24) %3, i32 noundef 128)
  ret void
}

; Function Attrs: mustprogress nounwind uwtable
define linkonce_odr hidden void @_ZN4llvm11SmallStringILj128EED2Ev(ptr noundef nonnull align 8 dereferenceable(152) %0) unnamed_addr #0 comdat align 2 {
  %2 = alloca ptr, align 8
  store ptr %0, ptr %2, align 8
  %3 = load ptr, ptr %2, align 8
  call void @_ZN4llvm11SmallVectorIcLj128EED2Ev(ptr noundef nonnull align 8 dereferenceable(152) %3) #9
  ret void
}

; Function Attrs: mustprogress nounwind uwtable
define linkonce_odr hidden void @_ZNSt10error_codeC2Ev(ptr noundef nonnull align 8 dereferenceable(16) %0) unnamed_addr #0 comdat align 2 {
  %2 = alloca ptr, align 8
  store ptr %0, ptr %2, align 8
  %3 = load ptr, ptr %2, align 8
  %4 = getelementptr inbounds nuw %"class.std::error_code", ptr %3, i32 0, i32 0
  store i32 0, ptr %4, align 8
  %5 = getelementptr inbounds nuw %"class.std::error_code", ptr %3, i32 0, i32 1
  %6 = call noundef nonnull align 8 dereferenceable(8) ptr @_ZNSt3_V215system_categoryEv() #13
  store ptr %6, ptr %5, align 8
  ret void
}

; Function Attrs: mustprogress nounwind uwtable
define linkonce_odr hidden { i32, ptr } @_ZN4llvm16errnoAsErrorCodeEv() #0 comdat {
  %1 = alloca %"class.std::error_code", align 8
  %2 = call ptr @__errno_location() #13
  %3 = load i32, ptr %2, align 4
  %4 = call noundef nonnull align 8 dereferenceable(8) ptr @_ZNSt3_V216generic_categoryEv() #13
  call void @_ZNSt10error_codeC2EiRKNSt3_V214error_categoryE(ptr noundef nonnull align 8 dereferenceable(16) %1, i32 noundef %3, ptr noundef nonnull align 8 dereferenceable(8) %4) #9
  %5 = load { i32, ptr }, ptr %1, align 8
  ret { i32, ptr } %5
}

; Function Attrs: mustprogress nounwind uwtable
define linkonce_odr hidden noundef ptr @_ZNK4llvm9StringRef5beginEv(ptr noundef nonnull align 8 dereferenceable(16) %0) #0 comdat align 2 {
  %2 = alloca ptr, align 8
  store ptr %0, ptr %2, align 8
  %3 = load ptr, ptr %2, align 8
  %4 = getelementptr inbounds nuw %"class.llvm::StringRef", ptr %3, i32 0, i32 0
  %5 = load ptr, ptr %4, align 8
  ret ptr %5
}

; Function Attrs: mustprogress nounwind uwtable
define linkonce_odr hidden void @_ZN4llvm11SmallStringILj128EEC2Ev(ptr noundef nonnull align 8 dereferenceable(152) %0) unnamed_addr #0 comdat align 2 {
  %2 = alloca ptr, align 8
  store ptr %0, ptr %2, align 8
  %3 = load ptr, ptr %2, align 8
  call void @_ZN4llvm11SmallVectorIcLj128EEC2Ev(ptr noundef nonnull align 8 dereferenceable(152) %3)
  ret void
}

; Function Attrs: mustprogress nounwind uwtable
define dso_local { i32, ptr } @_ZN4llvm3sys2fs11create_linkERKNS_5TwineES4_(ptr noundef nonnull align 8 dereferenceable(34) %0, ptr noundef nonnull align 8 dereferenceable(34) %1) #0 {
  %3 = alloca %"class.std::error_code", align 8
  %4 = alloca ptr, align 8
  %5 = alloca ptr, align 8
  %6 = alloca %"class.llvm::SmallString.10", align 8
  %7 = alloca %"class.llvm::SmallString.10", align 8
  %8 = alloca %"class.llvm::StringRef", align 8
  %9 = alloca %"class.llvm::StringRef", align 8
  %10 = alloca i32, align 4
  store ptr %0, ptr %4, align 8
  store ptr %1, ptr %5, align 8
  call void @_ZN4llvm11SmallStringILj128EEC2Ev(ptr noundef nonnull align 8 dereferenceable(152) %6)
  call void @_ZN4llvm11SmallStringILj128EEC2Ev(ptr noundef nonnull align 8 dereferenceable(152) %7)
  %11 = load ptr, ptr %5, align 8
  %12 = call { ptr, i64 } @_ZNK4llvm5Twine25toNullTerminatedStringRefERNS_15SmallVectorImplIcEE(ptr noundef nonnull align 8 dereferenceable(34) %11, ptr noundef nonnull align 8 dereferenceable(24) %6)
  %13 = getelementptr inbounds nuw { ptr, i64 }, ptr %8, i32 0, i32 0
  %14 = extractvalue { ptr, i64 } %12, 0
  store ptr %14, ptr %13, align 8
  %15 = getelementptr inbounds nuw { ptr, i64 }, ptr %8, i32 0, i32 1
  %16 = extractvalue { ptr, i64 } %12, 1
  store i64 %16, ptr %15, align 8
  %17 = load ptr, ptr %4, align 8
  %18 = call { ptr, i64 } @_ZNK4llvm5Twine25toNullTerminatedStringRefERNS_15SmallVectorImplIcEE(ptr noundef nonnull align 8 dereferenceable(34) %17, ptr noundef nonnull align 8 dereferenceable(24) %7)
  %19 = getelementptr inbounds nuw { ptr, i64 }, ptr %9, i32 0, i32 0
  %20 = extractvalue { ptr, i64 } %18, 0
  store ptr %20, ptr %19, align 8
  %21 = getelementptr inbounds nuw { ptr, i64 }, ptr %9, i32 0, i32 1
  %22 = extractvalue { ptr, i64 } %18, 1
  store i64 %22, ptr %21, align 8
  %23 = call noundef ptr @_ZNK4llvm9StringRef5beginEv(ptr noundef nonnull align 8 dereferenceable(16) %9)
  %24 = call noundef ptr @_ZNK4llvm9StringRef5beginEv(ptr noundef nonnull align 8 dereferenceable(16) %8)
  %25 = call i32 @symlink(ptr noundef %23, ptr noundef %24) #9
  %26 = icmp eq i32 %25, -1
  br i1 %26, label %27, label %33

27:                                               ; preds = %2
  %28 = call { i32, ptr } @_ZN4llvm16errnoAsErrorCodeEv()
  %29 = getelementptr inbounds nuw { i32, ptr }, ptr %3, i32 0, i32 0
  %30 = extractvalue { i32, ptr } %28, 0
  store i32 %30, ptr %29, align 8
  %31 = getelementptr inbounds nuw { i32, ptr }, ptr %3, i32 0, i32 1
  %32 = extractvalue { i32, ptr } %28, 1
  store ptr %32, ptr %31, align 8
  store i32 1, ptr %10, align 4
  br label %34

33:                                               ; preds = %2
  call void @_ZNSt10error_codeC2Ev(ptr noundef nonnull align 8 dereferenceable(16) %3) #9
  store i32 1, ptr %10, align 4
  br label %34

34:                                               ; preds = %33, %27
  call void @_ZN4llvm11SmallStringILj128EED2Ev(ptr noundef nonnull align 8 dereferenceable(152) %7) #9
  call void @_ZN4llvm11SmallStringILj128EED2Ev(ptr noundef nonnull align 8 dereferenceable(152) %6) #9
  %35 = load { i32, ptr }, ptr %3, align 8
  ret { i32, ptr } %35
}