; Function Attrs: mustprogress nounwind uwtable
define dso_local { i32, ptr } @_ZN4llvm3sys2fs11create_linkERKNS_5TwineES4_(ptr noundef nonnull align 8 dereferenceable(34) %0, ptr noundef nonnull align 8 dereferenceable(34) %1) local_unnamed_addr #0 {
  %3 = alloca %"class.llvm::SmallString.10", align 8
  %4 = alloca %"class.llvm::SmallString.10", align 8
  %5 = getelementptr inbounds i8, ptr %3, i64 24
  call void @_ZN4llvm15SmallVectorBaseImEC2EPvm(ptr noundef nonnull align 8 dereferenceable(24) %3, ptr noundef nonnull %5, i64 noundef 128) #30
  %6 = getelementptr inbounds i8, ptr %4, i64 24
  call void @_ZN4llvm15SmallVectorBaseImEC2EPvm(ptr noundef nonnull align 8 dereferenceable(24) %4, ptr noundef nonnull %6, i64 noundef 128) #30
  %7 = call { ptr, i64 } @_ZNK4llvm5Twine25toNullTerminatedStringRefERNS_15SmallVectorImplIcEE(ptr noundef nonnull align 8 dereferenceable(34) %1, ptr noundef nonnull align 8 dereferenceable(24) %3) #30
  %8 = extractvalue { ptr, i64 } %7, 0
  %9 = call { ptr, i64 } @_ZNK4llvm5Twine25toNullTerminatedStringRefERNS_15SmallVectorImplIcEE(ptr noundef nonnull align 8 dereferenceable(34) %0, ptr noundef nonnull align 8 dereferenceable(24) %4) #30
  %10 = extractvalue { ptr, i64 } %9, 0
  %11 = call i32 @symlink(ptr noundef %10, ptr noundef %8) #30
  %12 = icmp eq i32 %11, -1
  br i1 %12, label %13, label %17

13:                                               ; preds = %2
  %14 = tail call ptr @__errno_location() #33
  %15 = load i32, ptr %14, align 4
  %16 = tail call noundef nonnull align 8 dereferenceable(8) ptr @_ZNSt3_V216generic_categoryEv() #33
  br label %19

17:                                               ; preds = %2
  %18 = tail call noundef nonnull align 8 dereferenceable(8) ptr @_ZNSt3_V215system_categoryEv() #33
  br label %19

19:                                               ; preds = %17, %13
  %.sroa.05.0 = phi i32 [ %15, %13 ], [ 0, %17 ]
  %.sroa.3.0 = phi ptr [ %16, %13 ], [ %18, %17 ]
  %20 = call noundef i64 @_ZNK4llvm15SmallVectorBaseImE4sizeEv(ptr noundef nonnull align 8 dereferenceable(24) %4) #30
  %21 = load ptr, ptr %4, align 8
  %22 = icmp eq ptr %21, %6
  br i1 %22, label %_ZN4llvm11SmallStringILj128EED2Ev.exit, label %23

23:                                               ; preds = %19
  call void @free(ptr noundef %21) #30
  br label %_ZN4llvm11SmallStringILj128EED2Ev.exit

_ZN4llvm11SmallStringILj128EED2Ev.exit:           ; preds = %19, %23
  %24 = call noundef i64 @_ZNK4llvm15SmallVectorBaseImE4sizeEv(ptr noundef nonnull align 8 dereferenceable(24) %3) #30
  %25 = load ptr, ptr %3, align 8
  %26 = icmp eq ptr %25, %5
  br i1 %26, label %_ZN4llvm11SmallStringILj128EED2Ev.exit2, label %27

27:                                               ; preds = %_ZN4llvm11SmallStringILj128EED2Ev.exit
  call void @free(ptr noundef %25) #30
  br label %_ZN4llvm11SmallStringILj128EED2Ev.exit2

_ZN4llvm11SmallStringILj128EED2Ev.exit2:          ; preds = %_ZN4llvm11SmallStringILj128EED2Ev.exit, %27
  %.fca.0.insert = insertvalue { i32, ptr } poison, i32 %.sroa.05.0, 0
  %.fca.1.insert = insertvalue { i32, ptr } %.fca.0.insert, ptr %.sroa.3.0, 1
  ret { i32, ptr } %.fca.1.insert
}